; Function Attrs: mustprogress uwtable
define internal void @_ZN9grpc_core8channelz12_GLOBAL__N_118SecurityArgDestroyEPv(ptr noundef %0) #3 {
  %2 = getelementptr inbounds nuw i8, ptr %0, i64 8
  %3 = atomicrmw sub ptr %2, i64 1 acq_rel, align 8
  %4 = icmp eq i64 %3, 1
  br i1 %4, label %5, label %_ZNK9grpc_core10RefCountedINS_8channelz10SocketNode8SecurityENS_19PolymorphicRefCountENS_11UnrefDeleteEE5UnrefEv.exit, !prof !28

5:                                                ; preds = %1
  %6 = load ptr, ptr %0, align 8, !tbaa !8
  %7 = getelementptr inbounds nuw i8, ptr %6, i64 8
  %8 = load ptr, ptr %7, align 8
  tail call void %8(ptr noundef nonnull align 8 dereferenceable(200) %0) #32
  br label %_ZNK9grpc_core10RefCountedINS_8channelz10SocketNode8SecurityENS_19PolymorphicRefCountENS_11UnrefDeleteEE5UnrefEv.exit

_ZNK9grpc_core10RefCountedINS_8channelz10SocketNode8SecurityENS_19PolymorphicRefCountENS_11UnrefDeleteEE5UnrefEv.exit: ; preds = %1, %5
  ret void
}